target datalayout = "e-m:e-p270:32:32-p271:32:32-p272:64:64-i64:64-i128:128-f80:128-n8:16:32:64-S128"
target triple = "x86_64-pc-linux-gnu"

%"struct.vcpkg::MessageSink" = type { ptr }
%"struct.vcpkg::TeeSink" = type { %"struct.vcpkg::MessageSink", ptr, ptr }

; Function Attrs: mustprogress uwtable
define dso_local void @_ZN5vcpkg7TeeSink7printlnENS_5ColorERKNS_15LocalizedStringE(ptr noundef nonnull align 8 dereferenceable(24) %0, i8 noundef signext %1, ptr noundef nonnull align 8 dereferenceable(32) %2) unnamed_addr #0 align 2 {
  %4 = alloca ptr, align 8
  %5 = alloca i8, align 1
  %6 = alloca ptr, align 8
  store ptr %0, ptr %4, align 8, !tbaa !63
  store i8 %1, ptr %5, align 1, !tbaa !27
  store ptr %2, ptr %6, align 8, !tbaa !9
  %7 = load ptr, ptr %4, align 8
  %8 = getelementptr inbounds nuw %"struct.vcpkg::TeeSink", ptr %7, i32 0, i32 1
  %9 = load ptr, ptr %8, align 8, !tbaa !65
  %10 = load i8, ptr %5, align 1, !tbaa !27
  %11 = load ptr, ptr %6, align 8, !tbaa !9
  %12 = load ptr, ptr %9, align 8, !tbaa !42
  %13 = getelementptr inbounds ptr, ptr %12, i64 4
  %14 = load ptr, ptr %13, align 8
  call void %14(ptr noundef nonnull align 8 dereferenceable(8) %9, i8 noundef signext %10, ptr noundef nonnull align 8 dereferenceable(32) %11)
  %15 = getelementptr inbounds nuw %"struct.vcpkg::TeeSink", ptr %7, i32 0, i32 2
  %16 = load ptr, ptr %15, align 8, !tbaa !68
  %17 = load i8, ptr %5, align 1, !tbaa !27
  %18 = load ptr, ptr %6, align 8, !tbaa !9
  %19 = load ptr, ptr %16, align 8, !tbaa !42
  %20 = getelementptr inbounds ptr, ptr %19, i64 4
  %21 = load ptr, ptr %20, align 8
  call void %21(ptr noundef nonnull align 8 dereferenceable(8) %16, i8 noundef signext %17, ptr noundef nonnull align 8 dereferenceable(32) %18)
  ret void
}