; Function Attrs: mustprogress uwtable
define dso_local void @_ZN5vcpkg7TeeSink7printlnENS_5ColorERKNS_15LocalizedStringE(ptr noundef nonnull readonly align 8 captures(none) dereferenceable(24) %0, i8 noundef signext %1, ptr noundef nonnull align 8 dereferenceable(32) %2) unnamed_addr #0 align 2 {
  %4 = getelementptr inbounds nuw i8, ptr %0, i64 8
  %5 = load ptr, ptr %4, align 8, !tbaa !36
  %6 = load ptr, ptr %5, align 8, !tbaa !30
  %7 = getelementptr inbounds nuw i8, ptr %6, i64 32
  %8 = load ptr, ptr %7, align 8
  tail call void %8(ptr noundef nonnull align 8 dereferenceable(8) %5, i8 noundef signext %1, ptr noundef nonnull align 8 dereferenceable(32) %2)
  %9 = getelementptr inbounds nuw i8, ptr %0, i64 16
  %10 = load ptr, ptr %9, align 8, !tbaa !40
  %11 = load ptr, ptr %10, align 8, !tbaa !30
  %12 = getelementptr inbounds nuw i8, ptr %11, i64 32
  %13 = load ptr, ptr %12, align 8
  tail call void %13(ptr noundef nonnull align 8 dereferenceable(8) %10, i8 noundef signext %1, ptr noundef nonnull align 8 dereferenceable(32) %2)
  ret void
}